target datalayout = "e-m:e-p270:32:32-p271:32:32-p272:64:64-i64:64-i128:128-f80:128-n8:16:32:64-S128"
target triple = "x86_64-pc-linux-gnu"

%struct._conversation_hash_t = type { ptr, ptr, ptr, i32 }
%struct._address = type { i32, i32, ptr, ptr }
%struct.hashipv4 = type { i32, i8, [16 x i8], [256 x i8], [19 x i8] }

; Function Attrs: alwaysinline nounwind
define internal ptr @memcpy.inline(ptr noalias %0, ptr noalias %1, i64 %2) #8 {
  %4 = alloca ptr, align 8
  %5 = alloca ptr, align 8
  %6 = alloca i64, align 8
  store ptr %0, ptr %4, align 8
  store ptr %1, ptr %5, align 8
  store i64 %2, ptr %6, align 8
  %7 = load ptr, ptr %4, align 8
  %8 = load ptr, ptr %5, align 8
  %9 = load i64, ptr %6, align 8
  %10 = load ptr, ptr %4, align 8
  %11 = call i64 @llvm.objectsize.i64.p0(ptr %10, i1 false, i1 true, i1 true)
  %12 = call ptr @__memcpy_chk(ptr noundef %7, ptr noundef %8, i64 noundef %9, i64 noundef %11) #16
  ret ptr %12
}

; Function Attrs: null_pointer_is_valid sspstrong uwtable
define void @add_endpoint_table_data_ipv4_subnet(ptr noundef %0, ptr noundef %1, i32 noundef %2, i1 noundef zeroext %3, i32 noundef %4, i32 noundef %5, ptr noundef %6, i32 noundef %7) #1 {
  %9 = alloca ptr, align 8
  %10 = alloca ptr, align 8
  %11 = alloca i32, align 4
  %12 = alloca i8, align 1
  %13 = alloca i32, align 4
  %14 = alloca i32, align 4
  %15 = alloca ptr, align 8
  %16 = alloca i32, align 4
  %17 = alloca i32, align 4
  %18 = alloca i8, align 1
  %19 = alloca ptr, align 8
  %20 = alloca ptr, align 8
  store ptr %0, ptr %9, align 8
  store ptr %1, ptr %10, align 8
  store i32 %2, ptr %11, align 4
  %21 = zext i1 %3 to i8
  store i8 %21, ptr %12, align 1
  store i32 %4, ptr %13, align 4
  store i32 %5, ptr %14, align 4
  store ptr %6, ptr %15, align 8
  store i32 %7, ptr %16, align 4
  call void @llvm.lifetime.start.p0(i64 4, ptr %17) #16
  %22 = load ptr, ptr %10, align 8
  %23 = getelementptr inbounds nuw %struct._address, ptr %22, i32 0, i32 2
  %24 = load ptr, ptr %23, align 8
  %25 = call ptr @memcpy.inline(ptr noundef %17, ptr noundef %24, i64 noundef 4) #16
  call void @llvm.lifetime.start.p0(i64 1, ptr %18) #16
  store i8 0, ptr %18, align 1
  call void @llvm.lifetime.start.p0(i64 8, ptr %19) #16
  %26 = load i32, ptr %17, align 4
  %27 = call ptr @new_ipv4(i32 noundef %26)
  store volatile ptr %27, ptr %19, align 8
  %28 = load i32, ptr %17, align 4
  %29 = load volatile ptr, ptr %19, align 8
  %30 = call zeroext i1 @fill_dummy_ip4(i32 noundef %28, ptr noundef %29)
  %31 = zext i1 %30 to i8
  store i8 %31, ptr %18, align 1
  call void @llvm.lifetime.start.p0(i64 8, ptr %20) #16
  store ptr null, ptr %20, align 8
  %32 = call ptr @wmem_epan_scope()
  %33 = call noalias ptr @wmem_alloc(ptr noundef %32, i64 noundef 24) #18
  store ptr %33, ptr %20, align 8
  %34 = load volatile ptr, ptr %19, align 8
  %35 = getelementptr inbounds nuw %struct.hashipv4, ptr %34, i32 0, i32 4
  %36 = getelementptr inbounds [19 x i8], ptr %35, i64 0, i64 0
  %37 = call i64 @strlen(ptr noundef %36) #17
  %38 = trunc i64 %37 to i32
  %39 = load ptr, ptr %20, align 8
  %40 = getelementptr inbounds nuw %struct._address, ptr %39, i32 0, i32 1
  store i32 %38, ptr %40, align 4
  %41 = call ptr @wmem_file_scope()
  %42 = load volatile ptr, ptr %19, align 8
  %43 = getelementptr inbounds nuw %struct.hashipv4, ptr %42, i32 0, i32 4
  %44 = getelementptr inbounds [19 x i8], ptr %43, i64 0, i64 0
  %45 = call noalias ptr @wmem_strdup(ptr noundef %41, ptr noundef %44)
  %46 = load ptr, ptr %20, align 8
  %47 = getelementptr inbounds nuw %struct._address, ptr %46, i32 0, i32 2
  store ptr %45, ptr %47, align 8
  %48 = load ptr, ptr %20, align 8
  %49 = getelementptr inbounds nuw %struct._address, ptr %48, i32 0, i32 0
  store i32 7, ptr %49, align 8
  %50 = load i8, ptr %18, align 1, !range !6, !noundef !7
  %51 = trunc i8 %50 to i1
  br i1 %51, label %52, label %78

52:                                               ; preds = %8
  %53 = load ptr, ptr %9, align 8
  %54 = load ptr, ptr %20, align 8
  %55 = load i32, ptr %11, align 4
  %56 = load i8, ptr %12, align 1, !range !6, !noundef !7
  %57 = trunc i8 %56 to i1
  %58 = load i32, ptr %13, align 4
  %59 = load i32, ptr %14, align 4
  %60 = load ptr, ptr %15, align 8
  %61 = load i32, ptr %16, align 4
  call void @add_endpoint_table_data(ptr noundef %53, ptr noundef %54, i32 noundef %55, i1 noundef zeroext %57, i32 noundef %58, i32 noundef %59, ptr noundef %60, i32 noundef %61)
  %62 = load ptr, ptr %9, align 8
  %63 = getelementptr inbounds nuw %struct._conversation_hash_t, ptr %62, i32 0, i32 3
  %64 = load i32, ptr %63, align 8
  %65 = and i32 %64, 512
  %66 = icmp ne i32 %65, 0
  br i1 %66, label %67, label %77

67:                                               ; preds = %52
  %68 = load ptr, ptr %9, align 8
  %69 = load ptr, ptr %10, align 8
  %70 = load i32, ptr %11, align 4
  %71 = load i8, ptr %12, align 1, !range !6, !noundef !7
  %72 = trunc i8 %71 to i1
  %73 = load i32, ptr %13, align 4
  %74 = load i32, ptr %14, align 4
  %75 = load ptr, ptr %15, align 8
  %76 = load i32, ptr %16, align 4
  call void @add_endpoint_table_data(ptr noundef %68, ptr noundef %69, i32 noundef %70, i1 noundef zeroext %72, i32 noundef %73, i32 noundef %74, ptr noundef %75, i32 noundef %76)
  br label %77

77:                                               ; preds = %67, %52
  br label %88

78:                                               ; preds = %8
  %79 = load ptr, ptr %9, align 8
  %80 = load ptr, ptr %10, align 8
  %81 = load i32, ptr %11, align 4
  %82 = load i8, ptr %12, align 1, !range !6, !noundef !7
  %83 = trunc i8 %82 to i1
  %84 = load i32, ptr %13, align 4
  %85 = load i32, ptr %14, align 4
  %86 = load ptr, ptr %15, align 8
  %87 = load i32, ptr %16, align 4
  call void @add_endpoint_table_data(ptr noundef %79, ptr noundef %80, i32 noundef %81, i1 noundef zeroext %83, i32 noundef %84, i32 noundef %85, ptr noundef %86, i32 noundef %87)
  br label %88

88:                                               ; preds = %78, %77
  call void @llvm.lifetime.end.p0(i64 8, ptr %20) #16
  call void @llvm.lifetime.end.p0(i64 8, ptr %19) #16
  call void @llvm.lifetime.end.p0(i64 1, ptr %18) #16
  call void @llvm.lifetime.end.p0(i64 4, ptr %17) #16
  ret void
}