; Function Attrs: null_pointer_is_valid sspstrong uwtable
define void @add_endpoint_table_data_ipv4_subnet(ptr noundef captures(none) %0, ptr noundef readonly captures(none) %1, i32 noundef %2, i1 noundef zeroext %3, i32 noundef %4, i32 noundef %5, ptr noundef %6, i32 noundef %7) local_unnamed_addr #1 {
  %9 = alloca ptr, align 8
  %10 = getelementptr inbounds nuw i8, ptr %1, i64 8
  %11 = load ptr, ptr %10, align 8
  %12 = load i32, ptr %11, align 1
  call void @llvm.lifetime.start.p0(i64 8, ptr nonnull %9)
  %13 = tail call ptr @new_ipv4(i32 noundef %12)
  store volatile ptr %13, ptr %9, align 8
  %.0..0..0..0.4 = load volatile ptr, ptr %9, align 8
  %14 = tail call zeroext i1 @fill_dummy_ip4(i32 noundef %12, ptr noundef %.0..0..0..0.4)
  %15 = tail call ptr @wmem_epan_scope()
  %16 = tail call noalias dereferenceable_or_null(24) ptr @wmem_alloc(ptr noundef %15, i64 noundef 24) #14
  %.0..0..0..0.5 = load volatile ptr, ptr %9, align 8
  %17 = getelementptr inbounds nuw i8, ptr %.0..0..0..0.5, i64 277
  %18 = tail call i64 @strlen(ptr noundef nonnull dereferenceable(1) %17) #13
  %19 = trunc i64 %18 to i32
  %20 = getelementptr inbounds nuw i8, ptr %16, i64 4
  store i32 %19, ptr %20, align 4
  %21 = tail call ptr @wmem_file_scope()
  %.0..0..0..0.6 = load volatile ptr, ptr %9, align 8
  %22 = getelementptr inbounds nuw i8, ptr %.0..0..0..0.6, i64 277
  %23 = tail call noalias ptr @wmem_strdup(ptr noundef %21, ptr noundef nonnull %22)
  %24 = getelementptr inbounds nuw i8, ptr %16, i64 8
  store ptr %23, ptr %24, align 8
  store i32 7, ptr %16, align 8
  br i1 %14, label %25, label %.sink.split

25:                                               ; preds = %8
  tail call void @add_endpoint_table_data(ptr noundef %0, ptr noundef %16, i32 noundef %2, i1 noundef zeroext %3, i32 noundef %4, i32 noundef %5, ptr noundef %6, i32 noundef %7)
  %26 = getelementptr inbounds nuw i8, ptr %0, i64 24
  %27 = load i32, ptr %26, align 8
  %28 = and i32 %27, 512
  %.not = icmp eq i32 %28, 0
  br i1 %.not, label %29, label %.sink.split

.sink.split:                                      ; preds = %8, %25
  tail call void @add_endpoint_table_data(ptr noundef %0, ptr noundef %1, i32 noundef %2, i1 noundef zeroext %3, i32 noundef %4, i32 noundef %5, ptr noundef %6, i32 noundef %7)
  br label %29

29:                                               ; preds = %.sink.split, %25
  call void @llvm.lifetime.end.p0(i64 8, ptr nonnull %9)
  ret void
}